; Function Attrs: mustprogress uwtable
define noundef i32 @_ZN5folly4test21DeterministicSchedule6getcpuEPjS2_Pv(ptr noundef writeonly captures(address_is_null) %0, ptr noundef writeonly captures(address_is_null) %1, ptr readnone captures(none) %2) #7 align 2 {
  %4 = tail call align 8 ptr @llvm.threadlocal.address.p0(ptr align 8 @_ZZN5folly20SingletonThreadLocalINS_4test12_GLOBAL__N_114PerThreadStateENS_6detail10DefaultTagENS4_11DefaultMakeIS3_EEvE3getEvE5cache)
  %5 = load ptr, ptr %4, align 8, !tbaa !43
  %.not.i = icmp eq ptr %5, null
  br i1 %.not.i, label %6, label %_ZN5folly20SingletonThreadLocalINS_4test12_GLOBAL__N_114PerThreadStateENS_6detail10DefaultTagENS4_11DefaultMakeIS3_EEvE3getEv.exit, !prof !45

6:                                                ; preds = %3
  %7 = tail call fastcc noundef nonnull align 8 dereferenceable(168) ptr @_ZN5folly20SingletonThreadLocalINS_4test12_GLOBAL__N_114PerThreadStateENS_6detail10DefaultTagENS4_11DefaultMakeIS3_EEvE7getSlowERNS4_25SingletonThreadLocalState10LocalCacheE(ptr noundef nonnull align 8 dereferenceable(8) %4)
  br label %_ZN5folly20SingletonThreadLocalINS_4test12_GLOBAL__N_114PerThreadStateENS_6detail10DefaultTagENS4_11DefaultMakeIS3_EEvE3getEv.exit

_ZN5folly20SingletonThreadLocalINS_4test12_GLOBAL__N_114PerThreadStateENS_6detail10DefaultTagENS4_11DefaultMakeIS3_EEvE3getEv.exit: ; preds = %3, %6
  %8 = phi ptr [ %7, %6 ], [ %5, %3 ]
  %.not = icmp eq ptr %0, null
  br i1 %.not, label %12, label %9

9:                                                ; preds = %_ZN5folly20SingletonThreadLocalINS_4test12_GLOBAL__N_114PerThreadStateENS_6detail10DefaultTagENS4_11DefaultMakeIS3_EEvE3getEv.exit
  %10 = getelementptr inbounds nuw i8, ptr %8, i64 20
  %11 = load i32, ptr %10, align 4, !tbaa !55
  store i32 %11, ptr %0, align 4, !tbaa !60
  br label %12

12:                                               ; preds = %9, %_ZN5folly20SingletonThreadLocalINS_4test12_GLOBAL__N_114PerThreadStateENS_6detail10DefaultTagENS4_11DefaultMakeIS3_EEvE3getEv.exit
  %.not7 = icmp eq ptr %1, null
  br i1 %.not7, label %16, label %13

13:                                               ; preds = %12
  %14 = getelementptr inbounds nuw i8, ptr %8, i64 20
  %15 = load i32, ptr %14, align 4, !tbaa !55
  store i32 %15, ptr %1, align 4, !tbaa !60
  br label %16

16:                                               ; preds = %13, %12
  ret i32 0
}